CCS PCH C Compiler, Version 5.007, 61971               12-Mar-24 14:31

               Filename:   C:\Kodlar\mikroDers\karaSimsek\main.lst

               ROM used:   166 bytes (1%)
                           Largest free fragment is 32602
               RAM used:   6 (0%) at main() level
                           7 (0%) worst case
               Stack used: 0 locations
               Stack size: 31

*
0000:  GOTO   002C
.................... #include <main.h> 
.................... #include <18F452.h> 
.................... //////// Standard Header file for the PIC18F452 device //////////////// 
.................... #device PIC18F452 
....................  
.................... #list 
....................  
.................... #device ADC=16 
....................  
.................... #FUSES NOWDT                 	//No Watch Dog Timer 
.................... #FUSES WDT128                	//Watch Dog Timer uses 1:128 Postscale 
.................... #FUSES NOBROWNOUT            	//No brownout reset 
.................... #FUSES NOLVP                 	//No low voltage prgming, B3(PIC16) or B5(PIC18) used for I/O 
....................  
.................... #use delay(crystal=4000000) 
0004:  CLRF   FEA
0006:  MOVLW  06
0008:  MOVWF  FE9
000A:  MOVF   FEF,W
000C:  BZ    002A
000E:  MOVLW  01
0010:  MOVWF  01
0012:  CLRF   00
0014:  DECFSZ 00,F
0016:  BRA    0014
0018:  DECFSZ 01,F
001A:  BRA    0012
001C:  MOVLW  4A
001E:  MOVWF  00
0020:  DECFSZ 00,F
0022:  BRA    0020
0024:  BRA    0026
0026:  DECFSZ FEF,F
0028:  BRA    000E
002A:  RETURN 0
....................  
....................  
.................... int z=1; 
.................... void main() 
002C:  CLRF   FF8
002E:  BCF    FD0.7
0030:  MOVLW  01
0032:  MOVWF  04
0034:  BSF    FC1.0
0036:  BSF    FC1.1
0038:  BSF    FC1.2
003A:  BCF    FC1.3
.................... { 
....................    set_tris_b(0x00);       // B portu ç?k?? 
003C:  MOVLW  00
003E:  MOVWF  F93
....................    output_b(0x00); 
0040:  CLRF   F93
0042:  CLRF   F8A
....................     
....................    output_b(z);            // PORTB<--z 
0044:  CLRF   F93
0046:  MOVFF  04,F8A
....................     
.................... while(1) 
.................... { 
....................    delay_ms(1000); 
004A:  MOVLW  04
004C:  MOVWF  05
004E:  MOVLW  FA
0050:  MOVWF  06
0052:  RCALL  0004
0054:  DECFSZ 05,F
0056:  BRA    004E
....................    while(input_state(pin_B7)==0) 
0058:  BTFSC  F81.7
005A:  BRA    0076
....................       { 
....................          z=z<<1;        // bir bit sola kay 
005C:  BCF    FD8.0
005E:  RLCF   04,F
....................          output_b(z);   // PORTB<--z 
0060:  CLRF   F93
0062:  MOVFF  04,F8A
....................          delay_ms(1000); 
0066:  MOVLW  04
0068:  MOVWF  05
006A:  MOVLW  FA
006C:  MOVWF  06
006E:  RCALL  0004
0070:  DECFSZ 05,F
0072:  BRA    006A
0074:  BRA    0058
....................       } 
....................    delay_ms(1000); 
0076:  MOVLW  04
0078:  MOVWF  05
007A:  MOVLW  FA
007C:  MOVWF  06
007E:  RCALL  0004
0080:  DECFSZ 05,F
0082:  BRA    007A
....................    while(input_state(pin_B0)==0) 
0084:  BTFSC  F81.0
0086:  BRA    00A2
....................       { 
....................          z=z>>1;        // bir bit sola kay 
0088:  BCF    FD8.0
008A:  RRCF   04,F
....................          output_b(z);   // PORTB<--z 
008C:  CLRF   F93
008E:  MOVFF  04,F8A
....................          delay_ms(1000); 
0092:  MOVLW  04
0094:  MOVWF  05
0096:  MOVLW  FA
0098:  MOVWF  06
009A:  RCALL  0004
009C:  DECFSZ 05,F
009E:  BRA    0096
00A0:  BRA    0084
....................       } 
00A2:  BRA    004A
.................... } 
.................... } 
00A4:  SLEEP 

Configuration Fuses:
   Word  1: 2100   XT NOOSCSEN
   Word  2: 0E0C   PUT NOBROWNOUT BORV20 NOWDT WDT128
   Word  3: 0100   CCP2C1
   Word  4: 0081   STVREN NOLVP NODEBUG
   Word  5: C00F   NOPROTECT NOCPB NOCPD
   Word  6: E00F   NOWRT NOWRTC NOWRTB NOWRTD
   Word  7: 400F   NOEBTR NOEBTRB
